; Function Attrs: mustprogress uwtable
define void @_ZN3gmx18AbstractPlotModule12dataFinishedEv(ptr noundef nonnull readonly align 8 captures(none) dereferenceable(16) %0) unnamed_addr #2 align 2 {
  %2 = getelementptr inbounds nuw i8, ptr %0, i64 8
  %3 = load ptr, ptr %2, align 8, !tbaa !4
  %4 = getelementptr inbounds nuw i8, ptr %3, i64 48
  %5 = load ptr, ptr %4, align 8, !tbaa !32
  %.not.i = icmp eq ptr %5, null
  br i1 %.not.i, label %_ZN3gmx18AbstractPlotModule4Impl9closeFileEv.exit, label %6

6:                                                ; preds = %1
  %7 = getelementptr inbounds nuw i8, ptr %3, i64 56
  %8 = load i8, ptr %7, align 8, !tbaa !14, !range !28, !noundef !29
  %9 = trunc nuw i8 %8 to i1
  br i1 %9, label %10, label %12

10:                                               ; preds = %6
  %11 = tail call noundef i32 @_Z14gmx_fio_fcloseP8_IO_FILE(ptr noundef nonnull %5)
  br label %13

12:                                               ; preds = %6
  tail call void @_Z9xvgrcloseP8_IO_FILE(ptr noundef nonnull %5)
  br label %13

13:                                               ; preds = %12, %10
  store ptr null, ptr %4, align 8, !tbaa !32
  br label %_ZN3gmx18AbstractPlotModule4Impl9closeFileEv.exit

_ZN3gmx18AbstractPlotModule4Impl9closeFileEv.exit: ; preds = %1, %13
  ret void
}